Certificate:
    Data:
        Version: 3 (0x2)
        Serial Number: 1537999950 (0x5bac044e)
    Signature Algorithm: sha256WithRSAEncryption
        Issuer: C=US, ST=California, L=San Francisco, O=Twitch, OU=Twitch Developer Rig, CN=Twitch Developer Rig CA/emailAddress=twitchdev@twitch.tv
        Validity
            Not Before: Oct 27 20:51:25 2018 GMT
            Not After : Aug 10 20:51:25 2292 GMT
        Subject: C=US, ST=California, L=San Francisco, O=Twitch, OU=Twitch Developer Rig, CN=Twitch Developer Rig
        Subject Public Key Info:
            Public Key Algorithm: rsaEncryption
                Public-Key: (2048 bit)
                Modulus:
                    00:b6:ef:56:52:e2:e9:7c:bd:e6:38:fd:1a:30:16:
                    35:41:ae:b2:47:50:fd:47:a8:f3:d6:af:9b:44:de:
                    c1:56:10:72:ce:19:0a:1b:df:73:29:4d:07:a5:04:
                    d4:06:ff:67:53:78:51:a3:7d:87:7a:59:49:0a:e2:
                    9e:db:67:9a:25:cd:21:42:7c:82:99:73:8f:95:e7:
                    67:50:48:09:7a:57:81:a5:6e:2f:e2:46:8a:05:16:
                    47:38:45:9e:a0:4d:0d:01:a3:48:9d:90:ec:60:7f:
                    09:c7:3a:e1:a0:94:74:62:5b:c7:88:71:6b:2c:50:
                    c3:ca:7c:23:bb:20:13:12:5c:5d:fa:b3:19:81:65:
                    41:e8:ce:6b:30:15:61:74:d7:7e:55:12:93:e0:29:
                    40:52:95:6a:d7:b0:8b:b1:6e:8f:9f:0b:2a:72:6c:
                    56:5e:c5:c0:36:6a:cf:ca:6a:67:86:22:d0:28:94:
                    86:c1:78:84:c5:70:42:af:c8:86:1f:86:fc:66:4c:
                    b5:80:02:2a:6e:d7:db:d5:ed:9e:3c:02:1f:a8:44:
                    40:54:dd:cd:93:ca:8f:67:36:03:94:63:75:ce:e2:
                    89:19:90:8a:bb:a3:b3:f7:58:fa:97:28:a9:fe:c7:
                    05:dd:de:2c:b6:e9:f4:26:1b:62:e8:c3:f9:44:4c:
                    58:3d
                Exponent: 65537 (0x10001)
        X509v3 extensions:
            X509v3 Subject Key Identifier: 
                B6:65:AE:A6:4A:9A:A7:49:A0:E5:30:52:BD:D8:D9:9C:68:55:B6:5F
            X509v3 Authority Key Identifier: 
                keyid:56:4F:82:92:7D:B6:CE:05:DF:9D:DD:5F:0D:EC:E7:CD:07:D4:92:62

            X509v3 Basic Constraints: 
                CA:FALSE
            X509v3 Key Usage: 
                Digital Signature, Key Encipherment
            X509v3 Subject Alternative Name: 
                IP Address:127.0.0.1, IP Address:0:0:0:0:0:0:0:1, DNS:localhost.rig.twitch.tv, DNS:localhost
            Netscape Comment: 
                OpenSSL Generated Certificate
    Signature Algorithm: sha256WithRSAEncryption
         5c:3f:89:1e:71:17:f5:cc:e0:19:23:de:fd:3a:0a:f4:40:b7:
         38:45:8c:85:69:5a:be:9c:1a:81:18:c2:83:d5:c7:1d:8f:e2:
         59:b1:5d:b2:4e:4e:b0:fd:b9:e0:cf:fc:d4:ac:b3:c4:ab:05:
         1f:32:4e:5e:fc:21:f1:7e:05:04:bb:e1:03:6b:3a:30:8b:c9:
         8a:7e:64:cd:ed:39:23:36:a8:5c:1d:77:4d:a9:7d:b3:66:d2:
         d2:fd:b4:4c:e3:0e:ce:fa:9c:00:77:f5:d2:c7:79:82:4a:3b:
         cb:f7:c2:40:fb:76:cb:fe:ec:4c:d5:be:a6:d4:40:4d:e7:5f:
         ea:77:4d:70:7f:0a:9e:1a:f7:ad:29:cf:b0:2d:9a:1b:d4:4d:
         f2:8c:dd:c9:ff:48:fa:0f:db:42:ec:40:df:bc:55:53:c5:96:
         11:f4:b7:a2:3c:92:9f:d1:94:e4:92:6c:b7:b4:39:b6:99:09:
         1d:ee:b5:bc:c6:64:c3:58:bb:d9:e6:8c:e9:6b:fb:e7:af:c4:
         91:fa:41:c3:22:d0:bf:9f:05:53:c8:94:e3:f3:43:c4:af:c8:
         cd:8b:96:60:37:f0:ce:c8:d6:0b:61:29:7e:d4:e1:3b:0b:68:
         aa:92:2a:67:5f:dd:62:12:03:d9:a6:63:6d:4c:99:35:1b:6a:
         a8:e5:d2:b4:68:c9:12:0b:62:ee:6c:be:c4:09:e9:77:82:bc:
         dd:cc:35:1a:0f:7f:8b:6d:58:29:ce:54:a1:4f:e5:f4:b6:57:
         d7:c0:80:71:4f:86:d1:7a:fa:5b:ea:bf:2c:97:6e:61:f1:b7:
         0d:5b:e5:9d:ac:13:ac:a5:e8:82:0a:f1:98:a4:5f:18:88:e5:
         9a:0f:e4:63:f4:e3:a3:a2:56:dd:50:c9:1c:8d:01:3e:c8:2d:
         8b:f9:ea:06:65:22:fb:e8:b0:43:92:b2:e0:80:5d:e3:4f:02:
         86:ed:b0:16:4f:6b:4e:9c:54:0d:9b:0a:27:d3:76:a9:09:02:
         ff:fc:96:e5:91:ee:e9:2f:9d:55:c6:ca:7b:e8:5f:6d:7a:b7:
         40:75:94:80:7b:f9:1c:5a:32:24:ec:ad:41:f2:d9:af:a7:1b:
         ab:cf:0d:b9:b4:21:be:20:a0:05:7c:a2:71:58:14:71:83:28:
         2e:3c:69:a9:67:be:5e:1c:4c:ab:2f:5c:f1:ed:cc:20:e6:22:
         34:d8:c7:17:78:32:18:08:06:44:de:c1:1e:8e:14:40:1a:56:
         f5:4f:ac:a4:7b:4c:3f:9c:f6:13:a3:f3:61:90:ab:b3:8e:19:
         55:ca:2a:a2:fd:b1:ed:01:e2:b9:75:51:90:0e:8c:98:a8:be:
         b0:f6:f2:52:36:ff:b8:64
-----BEGIN CERTIFICATE-----
MIIFjDCCA3SgAwIBAgIEW6wETjANBgkqhkiG9w0BAQsFADCBsDELMAkGA1UEBhMC
VVMxEzARBgNVBAgMCkNhbGlmb3JuaWExFjAUBgNVBAcMDVNhbiBGcmFuY2lzY28x
DzANBgNVBAoMBlR3aXRjaDEdMBsGA1UECwwUVHdpdGNoIERldmVsb3BlciBSaWcx
IDAeBgNVBAMMF1R3aXRjaCBEZXZlbG9wZXIgUmlnIENBMSIwIAYJKoZIhvcNAQkB
FhN0d2l0Y2hkZXZAdHdpdGNoLnR2MCAXDTE4MTAyNzIwNTEyNVoYDzIyOTIwODEw
MjA1MTI1WjCBiTELMAkGA1UEBhMCVVMxEzARBgNVBAgMCkNhbGlmb3JuaWExFjAU
BgNVBAcMDVNhbiBGcmFuY2lzY28xDzANBgNVBAoMBlR3aXRjaDEdMBsGA1UECwwU
VHdpdGNoIERldmVsb3BlciBSaWcxHTAbBgNVBAMMFFR3aXRjaCBEZXZlbG9wZXIg
UmlnMIIBIjANBgkqhkiG9w0BAQEFAAOCAQ8AMIIBCgKCAQEAtu9WUuLpfL3mOP0a
MBY1Qa6yR1D9R6jz1q+bRN7BVhByzhkKG99zKU0HpQTUBv9nU3hRo32HellJCuKe
22eaJc0hQnyCmXOPlednUEgJeleBpW4v4kaKBRZHOEWeoE0NAaNInZDsYH8Jxzrh
oJR0YlvHiHFrLFDDynwjuyATElxd+rMZgWVB6M5rMBVhdNd+VRKT4ClAUpVq17CL
sW6PnwsqcmxWXsXANmrPympnhiLQKJSGwXiExXBCr8iGH4b8Zky1gAIqbtfb1e2e
PAIfqERAVN3Nk8qPZzYDlGN1zuKJGZCKu6Oz91j6lyip/scF3d4stun0Jhti6MP5
RExYPQIDAQABo4HQMIHNMB0GA1UdDgQWBBS2Za6mSpqnSaDlMFK92NmcaFW2XzAf
BgNVHSMEGDAWgBRWT4KSfbbOBd+d3V8N7OfNB9SSYjAJBgNVHRMEAjAAMAsGA1Ud
DwQEAwIFoDBFBgNVHREEPjA8hwR/AAABhxAAAAAAAAAAAAAAAAAAAAABghdsb2Nh
bGhvc3QucmlnLnR3aXRjaC50doIJbG9jYWxob3N0MCwGCWCGSAGG+EIBDQQfFh1P
cGVuU1NMIEdlbmVyYXRlZCBDZXJ0aWZpY2F0ZTANBgkqhkiG9w0BAQsFAAOCAgEA
XD+JHnEX9czgGSPe/ToK9EC3OEWMhWlavpwagRjCg9XHHY/iWbFdsk5OsP254M/8
1KyzxKsFHzJOXvwh8X4FBLvhA2s6MIvJin5kze05IzaoXB13Tal9s2bS0v20TOMO
zvqcAHf10sd5gko7y/fCQPt2y/7sTNW+ptRATedf6ndNcH8Knhr3rSnPsC2aG9RN
8ozdyf9I+g/bQuxA37xVU8WWEfS3ojySn9GU5JJst7Q5tpkJHe61vMZkw1i72eaM
6Wv756/EkfpBwyLQv58FU8iU4/NDxK/IzYuWYDfwzsjWC2EpftThOwtoqpIqZ1/d
YhID2aZjbUyZNRtqqOXStGjJEgti7my+xAnpd4K83cw1Gg9/i21YKc5UoU/l9LZX
18CAcU+G0Xr6W+q/LJduYfG3DVvlnawTrKXoggrxmKRfGIjlmg/kY/Tjo6JW3VDJ
HI0BPsgti/nqBmUi++iwQ5Ky4IBd408Chu2wFk9rTpxUDZsKJ9N2qQkC//yW5ZHu
6S+dVcbKe+hfbXq3QHWUgHv5HFoyJOytQfLZr6cbq88NubQhviCgBXyicVgUcYMo
LjxpqWe+XhxMqy9c8e3MIOYiNNjHF3gyGAgGRN7BHo4UQBpW9U+spHtMP5z2E6Pz
YZCrs44ZVcoqov2x7QHiuXVRkA6MmKi+sPbyUjb/uGQ=
-----END CERTIFICATE-----
